
toolkit:	file format elf64-littleaarch64


Disassembly of section .text:

0000000001010180 <.text>:
 1010180: e8 03 1f aa  	mov	x8, xzr
 1010184: 5f 00 08 eb  	cmp	x2, x8
 1010188: a0 00 00 54  	b.eq	0x101019c <.text+0x1c>
 101018c: 29 68 68 38  	ldrb	w9, [x1, x8]
 1010190: 09 68 28 38  	strb	w9, [x0, x8]
 1010194: 08 05 00 91  	add	x8, x8, #1
 1010198: fb ff ff 17  	b	0x1010184 <.text+0x4>
 101019c: c0 03 5f d6  	ret
 10101a0: fd 7b be a9  	stp	x29, x30, [sp, #-32]!
 10101a4: f4 4f 01 a9  	stp	x20, x19, [sp, #16]
 10101a8: fd 03 00 91  	mov	x29, sp
 10101ac: ff c3 01 d1  	sub	sp, sp, #112
 10101b0: f3 03 00 aa  	mov	x19, x0
 10101b4: 81 ff ff 90  	adrp	x1, 0x1000000
 10101b8: 21 b0 04 91  	add	x1, x1, #300
 10101bc: a0 23 01 d1  	sub	x0, x29, #72
 10101c0: 02 09 80 52  	mov	w2, #72
 10101c4: f4 03 00 91  	mov	x20, sp
 10101c8: ee ff ff 97  	bl	0x1010180 <.text>
 10101cc: 69 0a 40 f9  	ldr	x9, [x19, #16]
 10101d0: bf 43 1b b8  	stur	wzr, [x29, #-76]
 10101d4: c9 12 00 b4  	cbz	x9, 0x101042c <.text+0x2ac>
 10101d8: aa a5 85 d2  	mov	x10, #11565
 10101dc: 28 01 40 f9  	ldr	x8, [x9]
 10101e0: 2c 21 40 39  	ldrb	w12, [x9, #8]
 10101e4: ea ac ac f2  	movk	x10, #25959, lsl #16
 10101e8: 8a ae ce f2  	movk	x10, #30068, lsl #32
 10101ec: 2a 8d ec f2  	movk	x10, #25705, lsl #48
 10101f0: 4b 01 43 91  	add	x11, x10, #192, lsl #12
 10101f4: 08 01 0b ca  	eor	x8, x8, x11
 10101f8: 08 01 0c aa  	orr	x8, x8, x12
 10101fc: 08 06 00 b5  	cbnz	x8, 0x10102bc <.text+0x13c>
 1010200: 68 0e 40 f9  	ldr	x8, [x19, #24]
 1010204: c8 05 00 b4  	cbz	x8, 0x10102bc <.text+0x13c>
 1010208: 0b 11 40 39  	ldrb	w11, [x8, #4]
 101020c: 8b 05 00 34  	cbz	w11, 0x10102bc <.text+0x13c>
 1010210: 0b 15 40 39  	ldrb	w11, [x8, #5]
 1010214: 4b 05 00 35  	cbnz	w11, 0x10102bc <.text+0x13c>
 1010218: 6b 12 40 f9  	ldr	x11, [x19, #32]
 101021c: 0b 05 00 b5  	cbnz	x11, 0x10102bc <.text+0x13c>
 1010220: e3 03 1f 2a  	mov	w3, wzr
 1010224: 2a 00 80 52  	mov	w10, #1
 1010228: 89 00 80 52  	mov	w9, #4
 101022c: bf 83 19 f8  	stur	xzr, [x29, #-104]
 1010230: 0b 49 69 38  	ldrb	w11, [x8, w9, uxtw]
 1010234: 6b c1 00 51  	sub	w11, w11, #48
 1010238: 7f 25 00 71  	cmp	w11, #9
 101023c: 28 15 00 54  	b.hi	0x10104e0 <.text+0x360>
 1010240: 4c 09 0a 0b  	add	w12, w10, w10, lsl #2
 1010244: 63 0d 0a 1b  	madd	w3, w11, w10, w3
 1010248: 29 05 00 51  	sub	w9, w9, #1
 101024c: 3f 05 00 31  	cmn	w9, #1
 1010250: 8a 79 1f 53  	lsl	w10, w12, #1
 1010254: e1 fe ff 54  	b.ne	0x1010230 <.text+0xb0>
 1010258: 08 e2 84 12  	mov	w8, #-10001
 101025c: c9 e1 84 52  	mov	w9, #9998
 1010260: 68 00 08 0b  	add	w8, w3, w8
 1010264: 1f 01 09 6b  	cmp	w8, w9
 1010268: c8 13 00 54  	b.hi	0x10104e0 <.text+0x360>
 101026c: 01 22 88 92  	mov	x1, #-16657
 1010270: a4 a3 01 d1  	sub	x4, x29, #104
 1010274: c0 11 80 52  	mov	w0, #142
 1010278: a1 d5 bb f2  	movk	x1, #57005, lsl #16
 101027c: c2 e2 84 52  	mov	w2, #10006
 1010280: a2 00 00 94  	bl	0x1010508 <.text+0x388>
 1010284: a8 83 59 f8  	ldur	x8, [x29, #-104]
 1010288: c8 12 00 b4  	cbz	x8, 0x10104e0 <.text+0x360>
 101028c: 09 01 40 f9  	ldr	x9, [x8]
 1010290: 3f 01 08 eb  	cmp	x9, x8
 1010294: 61 12 00 54  	b.ne	0x10104e0 <.text+0x360>
 1010298: 1f 20 03 d5  	nop
 101029c: e2 f6 f7 50  	adr	x2, #-65826
 10102a0: 00 08 80 52  	mov	w0, #64
 10102a4: 41 00 80 52  	mov	w1, #2
 10102a8: 63 00 80 52  	mov	w3, #3
 10102ac: e4 03 1f aa  	mov	x4, xzr
 10102b0: 96 00 00 94  	bl	0x1010508 <.text+0x388>
 10102b4: e1 03 1f aa  	mov	x1, xzr
 10102b8: 8e 00 00 14  	b	0x10104f0 <.text+0x370>
 10102bc: 28 01 40 f9  	ldr	x8, [x9]
 10102c0: 2b 21 40 39  	ldrb	w11, [x9, #8]
 10102c4: 08 01 0a ca  	eor	x8, x8, x10
 10102c8: 08 01 0b aa  	orr	x8, x8, x11
 10102cc: 68 00 00 b5  	cbnz	x8, 0x10102d8 <.text+0x158>
 10102d0: 68 0e 40 f9  	ldr	x8, [x19, #24]
 10102d4: 28 05 00 b4  	cbz	x8, 0x1010378 <.text+0x1f8>
 10102d8: aa a5 85 d2  	mov	x10, #11565
 10102dc: 28 01 40 f9  	ldr	x8, [x9]
 10102e0: 29 11 40 79  	ldrh	w9, [x9, #8]
 10102e4: ea ac ac f2  	movk	x10, #25959, lsl #16
 10102e8: 8a 8e cd f2  	movk	x10, #27764, lsl #32
 10102ec: 2a 6d ee f2  	movk	x10, #29545, lsl #48
 10102f0: 1f 01 0a eb  	cmp	x8, x10
 10102f4: 88 0e 80 52  	mov	w8, #116
 10102f8: 20 01 48 7a  	ccmp	w9, w8, #0, eq
 10102fc: 81 09 00 54  	b.ne	0x101042c <.text+0x2ac>
 1010300: 68 0e 40 f9  	ldr	x8, [x19, #24]
 1010304: 48 09 00 b5  	cbnz	x8, 0x101042c <.text+0x2ac>
 1010308: e1 dd 97 52  	mov	w1, #48879
 101030c: c2 57 97 52  	mov	w2, #47806
 1010310: a4 33 01 d1  	sub	x4, x29, #76
 1010314: c0 11 80 52  	mov	w0, #142
 1010318: a1 d5 bb 72  	movk	w1, #57005, lsl #16
 101031c: c2 5f b9 72  	movk	w2, #51966, lsl #16
 1010320: e3 03 1f aa  	mov	x3, xzr
 1010324: bf 83 1a f8  	stur	xzr, [x29, #-88]
 1010328: 78 00 00 94  	bl	0x1010508 <.text+0x388>
 101032c: a1 43 5b b8  	ldur	w1, [x29, #-76]
 1010330: 81 0d 00 34  	cbz	w1, 0x10104e0 <.text+0x360>
 1010334: 42 62 89 52  	mov	w2, #19218
 1010338: 68 0d c0 d2  	mov	x8, #459561500672
 101033c: a9 63 01 d1  	sub	x9, x29, #88
 1010340: a3 a3 01 d1  	sub	x3, x29, #104
 1010344: a0 03 80 52  	mov	w0, #29
 1010348: 02 00 a8 72  	movk	w2, #16384, lsl #16
 101034c: e4 03 1f aa  	mov	x4, xzr
 1010350: a9 a3 39 a9  	stp	x9, x8, [x29, #-104]
 1010354: 6d 00 00 94  	bl	0x1010508 <.text+0x388>
 1010358: 40 0c f8 37  	tbnz	w0, #31, 0x10104e0 <.text+0x360>
 101035c: a8 83 5a f8  	ldur	x8, [x29, #-88]
 1010360: a8 06 00 b4  	cbz	x8, 0x1010434 <.text+0x2b4>
 1010364: 29 40 82 52  	mov	w9, #4609
 1010368: 49 0f a0 72  	movk	w9, #122, lsl #16
 101036c: 1f 01 09 eb  	cmp	x8, x9
 1010370: 83 06 00 54  	b.lo	0x1010440 <.text+0x2c0>
 1010374: 20 00 20 d4  	brk	#0x1
 1010378: e1 dd 97 52  	mov	w1, #48879
 101037c: c2 57 97 52  	mov	w2, #47806
 1010380: a4 33 01 d1  	sub	x4, x29, #76
 1010384: c0 11 80 52  	mov	w0, #142
 1010388: a1 d5 bb 72  	movk	w1, #57005, lsl #16
 101038c: c2 5f b9 72  	movk	w2, #51966, lsl #16
 1010390: e3 03 1f aa  	mov	x3, xzr
 1010394: 5d 00 00 94  	bl	0x1010508 <.text+0x388>
 1010398: a1 43 5b b8  	ldur	w1, [x29, #-76]
 101039c: 21 0a 00 34  	cbz	w1, 0x10104e0 <.text+0x360>
 10103a0: 42 61 89 52  	mov	w2, #19210
 10103a4: a3 63 01 d1  	sub	x3, x29, #88
 10103a8: a0 03 80 52  	mov	w0, #29
 10103ac: 02 00 b0 72  	movk	w2, #32768, lsl #16
 10103b0: e4 03 1f aa  	mov	x4, xzr
 10103b4: 55 00 00 94  	bl	0x1010508 <.text+0x388>
 10103b8: 40 09 00 35  	cbnz	w0, 0x10104e0 <.text+0x360>
 10103bc: a8 83 5a b8  	ldur	w8, [x29, #-88]
 10103c0: 09 e2 84 12  	mov	w9, #-10001
 10103c4: ca e1 84 52  	mov	w10, #9998
 10103c8: 09 01 09 0b  	add	w9, w8, w9
 10103cc: 3f 01 0a 6b  	cmp	w9, w10
 10103d0: 88 08 00 54  	b.hi	0x10104e0 <.text+0x360>
 10103d4: ea cc 8c 52  	mov	w10, #26215
 10103d8: 89 00 80 52  	mov	w9, #4
 10103dc: cb 1e 80 52  	mov	w11, #246
 10103e0: ca cc ac 72  	movk	w10, #26214, lsl #16
 10103e4: ac a3 01 d1  	sub	x12, x29, #104
 10103e8: 0d 7d 2a 9b  	smull	x13, w8, w10
 10103ec: ad fd 62 93  	asr	x13, x13, #34
 10103f0: ad 7d 4d 0b  	add	w13, w13, w13, lsr #31
 10103f4: a8 21 0b 1b  	madd	w8, w13, w11, w8
 10103f8: 08 c1 00 11  	add	w8, w8, #48
 10103fc: 88 69 29 38  	strb	w8, [x12, x9]
 1010400: 29 05 00 d1  	sub	x9, x9, #1
 1010404: 3f 05 00 b1  	cmn	x9, #1
 1010408: e8 03 0d 2a  	mov	w8, w13
 101040c: e1 fe ff 54  	b.ne	0x10103e8 <.text+0x268>
 1010410: 48 01 80 52  	mov	w8, #10
 1010414: a2 a3 01 d1  	sub	x2, x29, #104
 1010418: 00 08 80 52  	mov	w0, #64
 101041c: a8 d3 19 38  	sturb	w8, [x29, #-99]
 1010420: 21 00 80 52  	mov	w1, #1
 1010424: c3 00 80 52  	mov	w3, #6
 1010428: a1 ff ff 17  	b	0x10102ac <.text+0x12c>
 101042c: a0 23 01 d1  	sub	x0, x29, #72
 1010430: 2e 00 00 14  	b	0x10104e8 <.text+0x368>
 1010434: 80 ff ff 90  	adrp	x0, 0x1000000 <.text+0x274>
 1010438: 00 80 04 91  	add	x0, x0, #288
 101043c: 2b 00 00 14  	b	0x10104e8 <.text+0x368>
 1010440: 08 3d 00 91  	add	x8, x8, #15
 1010444: e9 03 00 91  	mov	x9, sp
 1010448: 08 ed 7c 92  	and	x8, x8, #0xfffffffffffffff0
 101044c: 33 01 08 cb  	sub	x19, x9, x8
 1010450: 7f 02 00 91  	mov	sp, x19
 1010454: a1 43 5b b8  	ldur	w1, [x29, #-76]
 1010458: 42 62 89 52  	mov	w2, #19218
 101045c: 88 0d 80 52  	mov	w8, #108
 1010460: a3 a3 01 d1  	sub	x3, x29, #104
 1010464: a0 03 80 52  	mov	w0, #29
 1010468: 02 00 a8 72  	movk	w2, #16384, lsl #16
 101046c: e4 03 1f aa  	mov	x4, xzr
 1010470: b3 83 19 f8  	stur	x19, [x29, #-104]
 1010474: a8 43 1a 38  	sturb	w8, [x29, #-92]
 1010478: 24 00 00 94  	bl	0x1010508 <.text+0x388>
 101047c: 20 03 f8 37  	tbnz	w0, #31, 0x10104e0 <.text+0x360>
 1010480: b4 03 19 f8  	stur	x20, [x29, #-112]
 1010484: 94 ff ff 90  	adrp	x20, 0x1000000 <.text+0x2c4>
 1010488: 94 f2 05 91  	add	x20, x20, #380
 101048c: e0 03 13 aa  	mov	x0, x19
 1010490: 27 00 00 94  	bl	0x101052c <.text+0x3ac>
 1010494: e3 03 00 aa  	mov	x3, x0
 1010498: 00 08 80 52  	mov	w0, #64
 101049c: 21 00 80 52  	mov	w1, #1
 10104a0: e2 03 13 aa  	mov	x2, x19
 10104a4: e4 03 1f aa  	mov	x4, xzr
 10104a8: 18 00 00 94  	bl	0x1010508 <.text+0x388>
 10104ac: 00 08 80 52  	mov	w0, #64
 10104b0: 21 00 80 52  	mov	w1, #1
 10104b4: e2 03 14 aa  	mov	x2, x20
 10104b8: 23 00 80 52  	mov	w3, #1
 10104bc: e4 03 1f aa  	mov	x4, xzr
 10104c0: 12 00 00 94  	bl	0x1010508 <.text+0x388>
 10104c4: e0 03 13 aa  	mov	x0, x19
 10104c8: 19 00 00 94  	bl	0x101052c <.text+0x3ac>
 10104cc: 73 02 00 8b  	add	x19, x19, x0
 10104d0: 68 1e 40 38  	ldrb	w8, [x19, #1]!
 10104d4: c8 fd ff 35  	cbnz	w8, 0x101048c <.text+0x30c>
 10104d8: b4 03 59 f8  	ldur	x20, [x29, #-112]
 10104dc: 76 ff ff 17  	b	0x10102b4 <.text+0x134>
 10104e0: 80 ff ff 90  	adrp	x0, 0x1000000 <.text+0x320>
 10104e4: 00 d0 05 91  	add	x0, x0, #372
 10104e8: 16 00 00 94  	bl	0x1010540 <.text+0x3c0>
 10104ec: 21 00 80 52  	mov	w1, #1
 10104f0: 9f 02 00 91  	mov	sp, x20
 10104f4: a0 0b 80 52  	mov	w0, #93
 10104f8: e2 03 1f aa  	mov	x2, xzr
 10104fc: e3 03 1f aa  	mov	x3, xzr
 1010500: e4 03 1f aa  	mov	x4, xzr
 1010504: 01 00 00 94  	bl	0x1010508 <.text+0x388>
 1010508: e8 03 00 aa  	mov	x8, x0
 101050c: e0 03 01 aa  	mov	x0, x1
 1010510: e1 03 02 aa  	mov	x1, x2
 1010514: e2 03 03 aa  	mov	x2, x3
 1010518: e3 03 04 aa  	mov	x3, x4
 101051c: e4 03 1f aa  	mov	x4, xzr
 1010520: e5 03 1f aa  	mov	x5, xzr
 1010524: 01 00 00 d4  	svc	#0
 1010528: c0 03 5f d6  	ret
 101052c: 08 04 00 d1  	sub	x8, x0, #1
 1010530: 09 1d 40 38  	ldrb	w9, [x8, #1]!
 1010534: e9 ff ff 35  	cbnz	w9, 0x1010530 <.text+0x3b0>
 1010538: 00 01 00 cb  	sub	x0, x8, x0
 101053c: c0 03 5f d6  	ret
 1010540: fe 4f bf a9  	stp	x30, x19, [sp, #-16]!
 1010544: f3 03 00 aa  	mov	x19, x0
 1010548: f9 ff ff 97  	bl	0x101052c <.text+0x3ac>
 101054c: e3 03 00 aa  	mov	x3, x0
 1010550: 00 08 80 52  	mov	w0, #64
 1010554: 41 00 80 52  	mov	w1, #2
 1010558: e2 03 13 aa  	mov	x2, x19
 101055c: e4 03 1f aa  	mov	x4, xzr
 1010560: fe 4f c1 a8  	ldp	x30, x19, [sp], #16
 1010564: e9 ff ff 17  	b	0x1010508 <.text+0x388>
 1010568: e0 03 00 91  	mov	x0, sp
 101056c: 0d ff ff 17  	b	0x10101a0 <.text+0x20>
 1010570: c0 03 5f d6  	ret
 1010574: c0 03 5f d6  	ret

